target datalayout = "e-m:e-p270:32:32-p271:32:32-p272:64:64-i64:64-i128:128-f80:128-n8:16:32:64-S128"
target triple = "x86_64-pc-linux-gnu"

%struct.Vec_Int_t_ = type { i32, i32, ptr }

; Function Attrs: nounwind uwtable
define i32 @Maj3_ManTest() #0 {
  %1 = alloca i32, align 4
  %2 = alloca i32, align 4
  %3 = alloca i32, align 4
  %4 = alloca [32 x i32], align 16
  %5 = alloca %struct.Vec_Int_t_, align 8
  store i32 7, ptr %1, align 4
  store i32 7, ptr %2, align 4
  store i32 1, ptr %3, align 4
  call void @llvm.memset.p0.i64(ptr align 16 %4, i8 0, i64 128, i1 false)
  %6 = getelementptr inbounds <{ i32, i32, i32, i32, [28 x i32] }>, ptr %4, i32 0, i32 0
  store i32 1, ptr %6, align 16
  %7 = getelementptr inbounds <{ i32, i32, i32, i32, [28 x i32] }>, ptr %4, i32 0, i32 1
  store i32 2, ptr %7, align 4
  %8 = getelementptr inbounds <{ i32, i32, i32, i32, [28 x i32] }>, ptr %4, i32 0, i32 2
  store i32 2, ptr %8, align 8
  %9 = getelementptr inbounds <{ i32, i32, i32, i32, [28 x i32] }>, ptr %4, i32 0, i32 3
  store i32 2, ptr %9, align 4
  %10 = getelementptr inbounds %struct.Vec_Int_t_, ptr %5, i32 0, i32 0
  store i32 4, ptr %10, align 8
  %11 = getelementptr inbounds %struct.Vec_Int_t_, ptr %5, i32 0, i32 1
  store i32 4, ptr %11, align 4
  %12 = getelementptr inbounds %struct.Vec_Int_t_, ptr %5, i32 0, i32 2
  %13 = getelementptr inbounds [32 x i32], ptr %4, i64 0, i64 0
  store ptr %13, ptr %12, align 8
  %14 = load i32, ptr %1, align 4
  %15 = load i32, ptr %2, align 4
  %16 = load i32, ptr %3, align 4
  %17 = call i32 @Maj3_ManExactSynthesis(i32 noundef %14, i32 noundef %15, i32 noundef %16, ptr noundef %5)
  ret i32 0
}